target datalayout = "e-m:e-p270:32:32-p271:32:32-p272:64:64-i64:64-i128:128-f80:128-n8:16:32:64-S128"
target triple = "x86_64-pc-linux-gnu"

%struct.decoration_filter = type { ptr, ptr, ptr }
%struct.string_list = type { ptr, i64, i64, i8, ptr }
%struct.string_list_item = type { ptr, ptr }

@decoration_loaded = internal global i32 0, align 4
@decoration_flags = internal global i32 0, align 4
@the_repository = external global ptr, align 8

; Function Attrs: nounwind uwtable
define dso_local void @load_ref_decorations(ptr noundef %0, i32 noundef %1) #0 {
  %3 = alloca ptr, align 8
  %4 = alloca i32, align 4
  %5 = alloca ptr, align 8
  store ptr %0, ptr %3, align 8, !tbaa !21
  store i32 %1, ptr %4, align 4, !tbaa !15
  %6 = load i32, ptr @decoration_loaded, align 4, !tbaa !15
  %7 = icmp ne i32 %6, 0
  br i1 %7, label %144, label %8

8:                                                ; preds = %2
  %9 = load ptr, ptr %3, align 8, !tbaa !21
  %10 = icmp ne ptr %9, null
  br i1 %10, label %11, label %132

11:                                               ; preds = %8
  call void @llvm.lifetime.start.p0(i64 8, ptr %5) #10
  %12 = load ptr, ptr %3, align 8, !tbaa !21
  %13 = getelementptr inbounds nuw %struct.decoration_filter, ptr %12, i32 0, i32 1
  %14 = load ptr, ptr %13, align 8, !tbaa !23
  %15 = getelementptr inbounds nuw %struct.string_list, ptr %14, i32 0, i32 0
  %16 = load ptr, ptr %15, align 8, !tbaa !25
  store ptr %16, ptr %5, align 8, !tbaa !28
  br label %17

17:                                               ; preds = %41, %11
  %18 = load ptr, ptr %5, align 8, !tbaa !28
  %19 = icmp ne ptr %18, null
  br i1 %19, label %20, label %34

20:                                               ; preds = %17
  %21 = load ptr, ptr %5, align 8, !tbaa !28
  %22 = load ptr, ptr %3, align 8, !tbaa !21
  %23 = getelementptr inbounds nuw %struct.decoration_filter, ptr %22, i32 0, i32 1
  %24 = load ptr, ptr %23, align 8, !tbaa !23
  %25 = getelementptr inbounds nuw %struct.string_list, ptr %24, i32 0, i32 0
  %26 = load ptr, ptr %25, align 8, !tbaa !25
  %27 = load ptr, ptr %3, align 8, !tbaa !21
  %28 = getelementptr inbounds nuw %struct.decoration_filter, ptr %27, i32 0, i32 1
  %29 = load ptr, ptr %28, align 8, !tbaa !23
  %30 = getelementptr inbounds nuw %struct.string_list, ptr %29, i32 0, i32 1
  %31 = load i64, ptr %30, align 8, !tbaa !29
  %32 = getelementptr inbounds nuw %struct.string_list_item, ptr %26, i64 %31
  %33 = icmp ult ptr %21, %32
  br label %34

34:                                               ; preds = %20, %17
  %35 = phi i1 [ false, %17 ], [ %33, %20 ]
  br i1 %35, label %36, label %44

36:                                               ; preds = %34
  %37 = load ptr, ptr %5, align 8, !tbaa !28
  %38 = load ptr, ptr %5, align 8, !tbaa !28
  %39 = getelementptr inbounds nuw %struct.string_list_item, ptr %38, i32 0, i32 0
  %40 = load ptr, ptr %39, align 8, !tbaa !30
  call void @normalize_glob_ref(ptr noundef %37, ptr noundef null, ptr noundef %40)
  br label %41

41:                                               ; preds = %36
  %42 = load ptr, ptr %5, align 8, !tbaa !28
  %43 = getelementptr inbounds nuw %struct.string_list_item, ptr %42, i32 1
  store ptr %43, ptr %5, align 8, !tbaa !28
  br label %17, !llvm.loop !32

44:                                               ; preds = %34
  %45 = load ptr, ptr %3, align 8, !tbaa !21
  %46 = getelementptr inbounds nuw %struct.decoration_filter, ptr %45, i32 0, i32 0
  %47 = load ptr, ptr %46, align 8, !tbaa !33
  %48 = getelementptr inbounds nuw %struct.string_list, ptr %47, i32 0, i32 0
  %49 = load ptr, ptr %48, align 8, !tbaa !25
  store ptr %49, ptr %5, align 8, !tbaa !28
  br label %50

50:                                               ; preds = %74, %44
  %51 = load ptr, ptr %5, align 8, !tbaa !28
  %52 = icmp ne ptr %51, null
  br i1 %52, label %53, label %67

53:                                               ; preds = %50
  %54 = load ptr, ptr %5, align 8, !tbaa !28
  %55 = load ptr, ptr %3, align 8, !tbaa !21
  %56 = getelementptr inbounds nuw %struct.decoration_filter, ptr %55, i32 0, i32 0
  %57 = load ptr, ptr %56, align 8, !tbaa !33
  %58 = getelementptr inbounds nuw %struct.string_list, ptr %57, i32 0, i32 0
  %59 = load ptr, ptr %58, align 8, !tbaa !25
  %60 = load ptr, ptr %3, align 8, !tbaa !21
  %61 = getelementptr inbounds nuw %struct.decoration_filter, ptr %60, i32 0, i32 0
  %62 = load ptr, ptr %61, align 8, !tbaa !33
  %63 = getelementptr inbounds nuw %struct.string_list, ptr %62, i32 0, i32 1
  %64 = load i64, ptr %63, align 8, !tbaa !29
  %65 = getelementptr inbounds nuw %struct.string_list_item, ptr %59, i64 %64
  %66 = icmp ult ptr %54, %65
  br label %67

67:                                               ; preds = %53, %50
  %68 = phi i1 [ false, %50 ], [ %66, %53 ]
  br i1 %68, label %69, label %77

69:                                               ; preds = %67
  %70 = load ptr, ptr %5, align 8, !tbaa !28
  %71 = load ptr, ptr %5, align 8, !tbaa !28
  %72 = getelementptr inbounds nuw %struct.string_list_item, ptr %71, i32 0, i32 0
  %73 = load ptr, ptr %72, align 8, !tbaa !30
  call void @normalize_glob_ref(ptr noundef %70, ptr noundef null, ptr noundef %73)
  br label %74

74:                                               ; preds = %69
  %75 = load ptr, ptr %5, align 8, !tbaa !28
  %76 = getelementptr inbounds nuw %struct.string_list_item, ptr %75, i32 1
  store ptr %76, ptr %5, align 8, !tbaa !28
  br label %50, !llvm.loop !34

77:                                               ; preds = %67
  %78 = load ptr, ptr %3, align 8, !tbaa !21
  %79 = getelementptr inbounds nuw %struct.decoration_filter, ptr %78, i32 0, i32 2
  %80 = load ptr, ptr %79, align 8, !tbaa !35
  %81 = getelementptr inbounds nuw %struct.string_list, ptr %80, i32 0, i32 0
  %82 = load ptr, ptr %81, align 8, !tbaa !25
  store ptr %82, ptr %5, align 8, !tbaa !28
  br label %83

83:                                               ; preds = %107, %77
  %84 = load ptr, ptr %5, align 8, !tbaa !28
  %85 = icmp ne ptr %84, null
  br i1 %85, label %86, label %100

86:                                               ; preds = %83
  %87 = load ptr, ptr %5, align 8, !tbaa !28
  %88 = load ptr, ptr %3, align 8, !tbaa !21
  %89 = getelementptr inbounds nuw %struct.decoration_filter, ptr %88, i32 0, i32 2
  %90 = load ptr, ptr %89, align 8, !tbaa !35
  %91 = getelementptr inbounds nuw %struct.string_list, ptr %90, i32 0, i32 0
  %92 = load ptr, ptr %91, align 8, !tbaa !25
  %93 = load ptr, ptr %3, align 8, !tbaa !21
  %94 = getelementptr inbounds nuw %struct.decoration_filter, ptr %93, i32 0, i32 2
  %95 = load ptr, ptr %94, align 8, !tbaa !35
  %96 = getelementptr inbounds nuw %struct.string_list, ptr %95, i32 0, i32 1
  %97 = load i64, ptr %96, align 8, !tbaa !29
  %98 = getelementptr inbounds nuw %struct.string_list_item, ptr %92, i64 %97
  %99 = icmp ult ptr %87, %98
  br label %100

100:                                              ; preds = %86, %83
  %101 = phi i1 [ false, %83 ], [ %99, %86 ]
  br i1 %101, label %102, label %110

102:                                              ; preds = %100
  %103 = load ptr, ptr %5, align 8, !tbaa !28
  %104 = load ptr, ptr %5, align 8, !tbaa !28
  %105 = getelementptr inbounds nuw %struct.string_list_item, ptr %104, i32 0, i32 0
  %106 = load ptr, ptr %105, align 8, !tbaa !30
  call void @normalize_glob_ref(ptr noundef %103, ptr noundef null, ptr noundef %106)
  br label %107

107:                                              ; preds = %102
  %108 = load ptr, ptr %5, align 8, !tbaa !28
  %109 = getelementptr inbounds nuw %struct.string_list_item, ptr %108, i32 1
  store ptr %109, ptr %5, align 8, !tbaa !28
  br label %83, !llvm.loop !36

110:                                              ; preds = %100
  %111 = load ptr, ptr %3, align 8, !tbaa !21
  %112 = getelementptr inbounds nuw %struct.decoration_filter, ptr %111, i32 0, i32 1
  %113 = load ptr, ptr %112, align 8, !tbaa !23
  %114 = getelementptr inbounds nuw %struct.string_list, ptr %113, i32 0, i32 3
  %115 = load i8, ptr %114, align 8
  %116 = and i8 %115, -2
  %117 = or i8 %116, 1
  store i8 %117, ptr %114, align 8
  %118 = load ptr, ptr %3, align 8, !tbaa !21
  %119 = getelementptr inbounds nuw %struct.decoration_filter, ptr %118, i32 0, i32 0
  %120 = load ptr, ptr %119, align 8, !tbaa !33
  %121 = getelementptr inbounds nuw %struct.string_list, ptr %120, i32 0, i32 3
  %122 = load i8, ptr %121, align 8
  %123 = and i8 %122, -2
  %124 = or i8 %123, 1
  store i8 %124, ptr %121, align 8
  %125 = load ptr, ptr %3, align 8, !tbaa !21
  %126 = getelementptr inbounds nuw %struct.decoration_filter, ptr %125, i32 0, i32 2
  %127 = load ptr, ptr %126, align 8, !tbaa !35
  %128 = getelementptr inbounds nuw %struct.string_list, ptr %127, i32 0, i32 3
  %129 = load i8, ptr %128, align 8
  %130 = and i8 %129, -2
  %131 = or i8 %130, 1
  store i8 %131, ptr %128, align 8
  call void @llvm.lifetime.end.p0(i64 8, ptr %5) #10
  br label %132

132:                                              ; preds = %110, %8
  store i32 1, ptr @decoration_loaded, align 4, !tbaa !15
  %133 = load i32, ptr %4, align 4, !tbaa !15
  store i32 %133, ptr @decoration_flags, align 4, !tbaa !15
  %134 = load ptr, ptr @the_repository, align 8, !tbaa !37
  %135 = call ptr @get_main_ref_store(ptr noundef %134)
  %136 = load ptr, ptr %3, align 8, !tbaa !21
  %137 = call i32 @refs_for_each_ref(ptr noundef %135, ptr noundef @add_ref_decoration, ptr noundef %136)
  %138 = load ptr, ptr @the_repository, align 8, !tbaa !37
  %139 = call ptr @get_main_ref_store(ptr noundef %138)
  %140 = load ptr, ptr %3, align 8, !tbaa !21
  %141 = call i32 @refs_head_ref(ptr noundef %139, ptr noundef @add_ref_decoration, ptr noundef %140)
  %142 = load ptr, ptr %3, align 8, !tbaa !21
  %143 = call i32 @for_each_commit_graft(ptr noundef @add_graft_decoration, ptr noundef %142)
  br label %144

144:                                              ; preds = %132, %2
  ret void
}