; Function Attrs: nounwind uwtable
define dso_local void @load_ref_decorations(ptr noundef %0, i32 noundef %1) local_unnamed_addr #0 {
  %.b = load i1, ptr @decoration_loaded, align 4
  br i1 %.b, label %75, label %3

3:                                                ; preds = %2
  %.not = icmp eq ptr %0, null
  br i1 %.not, label %67, label %4

4:                                                ; preds = %3
  %5 = getelementptr inbounds nuw i8, ptr %0, i64 8
  %6 = load ptr, ptr %5, align 8, !tbaa !17
  %7 = load ptr, ptr %6, align 8, !tbaa !20
  %.not3639 = icmp eq ptr %7, null
  br i1 %.not3639, label %.critedge, label %.lr.ph.preheader

.lr.ph.preheader:                                 ; preds = %4
  %8 = load ptr, ptr %5, align 8, !tbaa !17
  %9 = load ptr, ptr %8, align 8, !tbaa !20
  %10 = getelementptr inbounds nuw i8, ptr %8, i64 8
  %11 = load i64, ptr %10, align 8, !tbaa !24
  %12 = getelementptr inbounds nuw %struct.string_list_item, ptr %9, i64 %11
  %13 = icmp ult ptr %7, %12
  br i1 %13, label %.lr.ph, label %.critedge

.lr.ph:                                           ; preds = %.lr.ph.preheader, %.lr.ph
  %.04050 = phi ptr [ %15, %.lr.ph ], [ %7, %.lr.ph.preheader ]
  %14 = load ptr, ptr %.04050, align 8, !tbaa !25
  tail call void @normalize_glob_ref(ptr noundef nonnull %.04050, ptr noundef null, ptr noundef %14) #15
  %15 = getelementptr inbounds nuw i8, ptr %.04050, i64 16
  %16 = load ptr, ptr %5, align 8, !tbaa !17
  %17 = load ptr, ptr %16, align 8, !tbaa !20
  %18 = getelementptr inbounds nuw i8, ptr %16, i64 8
  %19 = load i64, ptr %18, align 8, !tbaa !24
  %20 = getelementptr inbounds nuw %struct.string_list_item, ptr %17, i64 %19
  %21 = icmp ult ptr %15, %20
  br i1 %21, label %.lr.ph, label %.critedge

.critedge:                                        ; preds = %.lr.ph, %.lr.ph.preheader, %4
  %22 = load ptr, ptr %0, align 8, !tbaa !27
  %23 = load ptr, ptr %22, align 8, !tbaa !20
  %.not3742 = icmp eq ptr %23, null
  br i1 %.not3742, label %.critedge2, label %.lr.ph44.preheader

.lr.ph44.preheader:                               ; preds = %.critedge
  %24 = load ptr, ptr %0, align 8, !tbaa !27
  %25 = load ptr, ptr %24, align 8, !tbaa !20
  %26 = getelementptr inbounds nuw i8, ptr %24, i64 8
  %27 = load i64, ptr %26, align 8, !tbaa !24
  %28 = getelementptr inbounds nuw %struct.string_list_item, ptr %25, i64 %27
  %29 = icmp ult ptr %23, %28
  br i1 %29, label %.lr.ph44, label %.critedge2

.lr.ph44:                                         ; preds = %.lr.ph44.preheader, %.lr.ph44
  %.14352 = phi ptr [ %31, %.lr.ph44 ], [ %23, %.lr.ph44.preheader ]
  %30 = load ptr, ptr %.14352, align 8, !tbaa !25
  tail call void @normalize_glob_ref(ptr noundef nonnull %.14352, ptr noundef null, ptr noundef %30) #15
  %31 = getelementptr inbounds nuw i8, ptr %.14352, i64 16
  %32 = load ptr, ptr %0, align 8, !tbaa !27
  %33 = load ptr, ptr %32, align 8, !tbaa !20
  %34 = getelementptr inbounds nuw i8, ptr %32, i64 8
  %35 = load i64, ptr %34, align 8, !tbaa !24
  %36 = getelementptr inbounds nuw %struct.string_list_item, ptr %33, i64 %35
  %37 = icmp ult ptr %31, %36
  br i1 %37, label %.lr.ph44, label %.critedge2

.critedge2:                                       ; preds = %.lr.ph44, %.lr.ph44.preheader, %.critedge
  %38 = getelementptr inbounds nuw i8, ptr %0, i64 16
  %39 = load ptr, ptr %38, align 8, !tbaa !28
  %40 = load ptr, ptr %39, align 8, !tbaa !20
  %.not3846 = icmp eq ptr %40, null
  br i1 %.not3846, label %.critedge4, label %.lr.ph48.preheader

.lr.ph48.preheader:                               ; preds = %.critedge2
  %41 = load ptr, ptr %38, align 8, !tbaa !28
  %42 = load ptr, ptr %41, align 8, !tbaa !20
  %43 = getelementptr inbounds nuw i8, ptr %41, i64 8
  %44 = load i64, ptr %43, align 8, !tbaa !24
  %45 = getelementptr inbounds nuw %struct.string_list_item, ptr %42, i64 %44
  %46 = icmp ult ptr %40, %45
  br i1 %46, label %.lr.ph48, label %.critedge4

.lr.ph48:                                         ; preds = %.lr.ph48.preheader, %.lr.ph48
  %.24754 = phi ptr [ %48, %.lr.ph48 ], [ %40, %.lr.ph48.preheader ]
  %47 = load ptr, ptr %.24754, align 8, !tbaa !25
  tail call void @normalize_glob_ref(ptr noundef nonnull %.24754, ptr noundef null, ptr noundef %47) #15
  %48 = getelementptr inbounds nuw i8, ptr %.24754, i64 16
  %49 = load ptr, ptr %38, align 8, !tbaa !28
  %50 = load ptr, ptr %49, align 8, !tbaa !20
  %51 = getelementptr inbounds nuw i8, ptr %49, i64 8
  %52 = load i64, ptr %51, align 8, !tbaa !24
  %53 = getelementptr inbounds nuw %struct.string_list_item, ptr %50, i64 %52
  %54 = icmp ult ptr %48, %53
  br i1 %54, label %.lr.ph48, label %.critedge4

.critedge4:                                       ; preds = %.lr.ph48, %.lr.ph48.preheader, %.critedge2
  %55 = load ptr, ptr %5, align 8, !tbaa !17
  %56 = getelementptr inbounds nuw i8, ptr %55, i64 24
  %57 = load i8, ptr %56, align 8
  %58 = or i8 %57, 1
  store i8 %58, ptr %56, align 8
  %59 = load ptr, ptr %0, align 8, !tbaa !27
  %60 = getelementptr inbounds nuw i8, ptr %59, i64 24
  %61 = load i8, ptr %60, align 8
  %62 = or i8 %61, 1
  store i8 %62, ptr %60, align 8
  %63 = load ptr, ptr %38, align 8, !tbaa !28
  %64 = getelementptr inbounds nuw i8, ptr %63, i64 24
  %65 = load i8, ptr %64, align 8
  %66 = or i8 %65, 1
  store i8 %66, ptr %64, align 8
  br label %67

67:                                               ; preds = %.critedge4, %3
  store i1 true, ptr @decoration_loaded, align 4
  store i32 %1, ptr @decoration_flags, align 4, !tbaa !11
  %68 = load ptr, ptr @the_repository, align 8, !tbaa !15
  %69 = tail call ptr @get_main_ref_store(ptr noundef %68) #15
  %70 = tail call i32 @refs_for_each_ref(ptr noundef %69, ptr noundef nonnull @add_ref_decoration, ptr noundef %0) #15
  %71 = load ptr, ptr @the_repository, align 8, !tbaa !15
  %72 = tail call ptr @get_main_ref_store(ptr noundef %71) #15
  %73 = tail call i32 @refs_head_ref(ptr noundef %72, ptr noundef nonnull @add_ref_decoration, ptr noundef %0) #15
  %74 = tail call i32 @for_each_commit_graft(ptr noundef nonnull @add_graft_decoration, ptr noundef %0) #15
  br label %75

75:                                               ; preds = %67, %2
  ret void
}